; Function Attrs: nounwind sspstrong uwtable
define internal fastcc noundef ptr @rb_node_false_new(ptr noundef captures(none) %0, ptr noundef nonnull readonly captures(none) %1) unnamed_addr #0 {
  %3 = getelementptr i8, ptr %0, i64 288
  %.val.i = load ptr, ptr %3, align 8, !tbaa !120
  %4 = tail call ptr @rb_ast_newnode(ptr noundef %.val.i, i32 noundef range(i32 0, 115) 97, i64 noundef range(i64 32, 129) 32, i64 noundef 8) #31
  tail call void @rb_node_init(ptr noundef %4, i32 noundef range(i32 0, 115) 97) #31
  %5 = getelementptr inbounds nuw i8, ptr %4, i64 8
  tail call void @llvm.memcpy.p0.p0.i64(ptr noundef nonnull align 8 dereferenceable(16) %5, ptr noundef nonnull readonly align 4 dereferenceable(16) %1, i64 16, i1 false), !tbaa.struct !11
  %6 = load i32, ptr %1, align 4, !tbaa !51
  %7 = sext i32 %6 to i64
  %8 = load i64, ptr %4, align 8, !tbaa !61
  %9 = and i64 %8, 32767
  %10 = shl nsw i64 %7, 15
  %11 = or disjoint i64 %9, %10
  store i64 %11, ptr %4, align 8, !tbaa !61
  %12 = getelementptr inbounds nuw i8, ptr %0, i64 296
  %13 = load i32, ptr %12, align 8, !tbaa !192
  %14 = add nsw i32 %13, 1
  store i32 %14, ptr %12, align 8, !tbaa !192
  %15 = getelementptr inbounds nuw i8, ptr %4, i64 24
  store i32 %13, ptr %15, align 8, !tbaa !193
  ret ptr %4
}